target datalayout = "e-m:e-p270:32:32-p271:32:32-p272:64:64-i64:64-i128:128-f80:128-n8:16:32:64-S128"
target triple = "x86_64-pc-linux-gnu"

%struct.bio_st = type { ptr, ptr, ptr, ptr, ptr, i32, i32, i32, i32, i32, ptr, ptr, ptr, %struct.CRYPTO_REF_COUNT, i64, i64, %struct.crypto_ex_data_st }
%struct.CRYPTO_REF_COUNT = type { i32 }
%struct.crypto_ex_data_st = type { ptr, ptr }
%struct.bio_buf_mem_st = type { ptr, ptr }
%struct.buf_mem_st = type { i64, ptr, i64, i64 }

; Function Attrs: nounwind uwtable
define internal i32 @mem_read(ptr noundef %0, ptr noundef %1, i32 noundef %2) #0 {
  %4 = alloca ptr, align 8
  %5 = alloca ptr, align 8
  %6 = alloca i32, align 4
  %7 = alloca i32, align 4
  %8 = alloca ptr, align 8
  %9 = alloca ptr, align 8
  store ptr %0, ptr %4, align 8, !tbaa !11
  store ptr %1, ptr %5, align 8, !tbaa !33
  store i32 %2, ptr %6, align 4, !tbaa !7
  call void @llvm.lifetime.start.p0(i64 4, ptr %7) #6
  store i32 -1, ptr %7, align 4, !tbaa !7
  call void @llvm.lifetime.start.p0(i64 8, ptr %8) #6
  %10 = load ptr, ptr %4, align 8, !tbaa !11
  %11 = getelementptr inbounds nuw %struct.bio_st, ptr %10, i32 0, i32 10
  %12 = load ptr, ptr %11, align 8, !tbaa !13
  store ptr %12, ptr %8, align 8, !tbaa !21
  call void @llvm.lifetime.start.p0(i64 8, ptr %9) #6
  %13 = load ptr, ptr %8, align 8, !tbaa !21
  %14 = getelementptr inbounds nuw %struct.bio_buf_mem_st, ptr %13, i32 0, i32 1
  %15 = load ptr, ptr %14, align 8, !tbaa !31
  store ptr %15, ptr %9, align 8, !tbaa !26
  %16 = load ptr, ptr %4, align 8, !tbaa !11
  %17 = getelementptr inbounds nuw %struct.bio_st, ptr %16, i32 0, i32 7
  %18 = load i32, ptr %17, align 8, !tbaa !34
  %19 = and i32 %18, 512
  %20 = icmp ne i32 %19, 0
  br i1 %20, label %21, label %25

21:                                               ; preds = %3
  %22 = load ptr, ptr %8, align 8, !tbaa !21
  %23 = getelementptr inbounds nuw %struct.bio_buf_mem_st, ptr %22, i32 0, i32 0
  %24 = load ptr, ptr %23, align 8, !tbaa !23
  store ptr %24, ptr %9, align 8, !tbaa !26
  br label %25

25:                                               ; preds = %21, %3
  %26 = load ptr, ptr %4, align 8, !tbaa !11
  call void @BIO_clear_flags(ptr noundef %26, i32 noundef 15)
  %27 = load i32, ptr %6, align 4, !tbaa !7
  %28 = icmp sge i32 %27, 0
  br i1 %28, label %29, label %41

29:                                               ; preds = %25
  %30 = load i32, ptr %6, align 4, !tbaa !7
  %31 = sext i32 %30 to i64
  %32 = load ptr, ptr %9, align 8, !tbaa !26
  %33 = getelementptr inbounds nuw %struct.buf_mem_st, ptr %32, i32 0, i32 0
  %34 = load i64, ptr %33, align 8, !tbaa !29
  %35 = icmp ugt i64 %31, %34
  br i1 %35, label %36, label %41

36:                                               ; preds = %29
  %37 = load ptr, ptr %9, align 8, !tbaa !26
  %38 = getelementptr inbounds nuw %struct.buf_mem_st, ptr %37, i32 0, i32 0
  %39 = load i64, ptr %38, align 8, !tbaa !29
  %40 = trunc i64 %39 to i32
  br label %43

41:                                               ; preds = %29, %25
  %42 = load i32, ptr %6, align 4, !tbaa !7
  br label %43

43:                                               ; preds = %41, %36
  %44 = phi i32 [ %40, %36 ], [ %42, %41 ]
  store i32 %44, ptr %7, align 4, !tbaa !7
  %45 = load ptr, ptr %5, align 8, !tbaa !33
  %46 = icmp ne ptr %45, null
  br i1 %46, label %47, label %75

47:                                               ; preds = %43
  %48 = load i32, ptr %7, align 4, !tbaa !7
  %49 = icmp sgt i32 %48, 0
  br i1 %49, label %50, label %75

50:                                               ; preds = %47
  %51 = load ptr, ptr %5, align 8, !tbaa !33
  %52 = load ptr, ptr %9, align 8, !tbaa !26
  %53 = getelementptr inbounds nuw %struct.buf_mem_st, ptr %52, i32 0, i32 1
  %54 = load ptr, ptr %53, align 8, !tbaa !27
  %55 = load i32, ptr %7, align 4, !tbaa !7
  %56 = sext i32 %55 to i64
  call void @llvm.memcpy.p0.p0.i64(ptr align 1 %51, ptr align 1 %54, i64 %56, i1 false)
  %57 = load i32, ptr %7, align 4, !tbaa !7
  %58 = sext i32 %57 to i64
  %59 = load ptr, ptr %9, align 8, !tbaa !26
  %60 = getelementptr inbounds nuw %struct.buf_mem_st, ptr %59, i32 0, i32 0
  %61 = load i64, ptr %60, align 8, !tbaa !29
  %62 = sub i64 %61, %58
  store i64 %62, ptr %60, align 8, !tbaa !29
  %63 = load i32, ptr %7, align 4, !tbaa !7
  %64 = sext i32 %63 to i64
  %65 = load ptr, ptr %9, align 8, !tbaa !26
  %66 = getelementptr inbounds nuw %struct.buf_mem_st, ptr %65, i32 0, i32 2
  %67 = load i64, ptr %66, align 8, !tbaa !30
  %68 = sub i64 %67, %64
  store i64 %68, ptr %66, align 8, !tbaa !30
  %69 = load i32, ptr %7, align 4, !tbaa !7
  %70 = load ptr, ptr %9, align 8, !tbaa !26
  %71 = getelementptr inbounds nuw %struct.buf_mem_st, ptr %70, i32 0, i32 1
  %72 = load ptr, ptr %71, align 8, !tbaa !27
  %73 = sext i32 %69 to i64
  %74 = getelementptr inbounds i8, ptr %72, i64 %73
  store ptr %74, ptr %71, align 8, !tbaa !27
  br label %90

75:                                               ; preds = %47, %43
  %76 = load ptr, ptr %9, align 8, !tbaa !26
  %77 = getelementptr inbounds nuw %struct.buf_mem_st, ptr %76, i32 0, i32 0
  %78 = load i64, ptr %77, align 8, !tbaa !29
  %79 = icmp eq i64 %78, 0
  br i1 %79, label %80, label %89

80:                                               ; preds = %75
  %81 = load ptr, ptr %4, align 8, !tbaa !11
  %82 = getelementptr inbounds nuw %struct.bio_st, ptr %81, i32 0, i32 9
  %83 = load i32, ptr %82, align 8, !tbaa !35
  store i32 %83, ptr %7, align 4, !tbaa !7
  %84 = load i32, ptr %7, align 4, !tbaa !7
  %85 = icmp ne i32 %84, 0
  br i1 %85, label %86, label %88

86:                                               ; preds = %80
  %87 = load ptr, ptr %4, align 8, !tbaa !11
  call void @BIO_set_flags(ptr noundef %87, i32 noundef 9)
  br label %88

88:                                               ; preds = %86, %80
  br label %89

89:                                               ; preds = %88, %75
  br label %90

90:                                               ; preds = %89, %50
  %91 = load i32, ptr %7, align 4, !tbaa !7
  call void @llvm.lifetime.end.p0(i64 8, ptr %9) #6
  call void @llvm.lifetime.end.p0(i64 8, ptr %8) #6
  call void @llvm.lifetime.end.p0(i64 4, ptr %7) #6
  ret i32 %91
}

; Function Attrs: nounwind uwtable
define internal i32 @mem_gets(ptr noundef %0, ptr noundef %1, i32 noundef %2) #0 {
  %4 = alloca i32, align 4
  %5 = alloca ptr, align 8
  %6 = alloca ptr, align 8
  %7 = alloca i32, align 4
  %8 = alloca i32, align 4
  %9 = alloca i32, align 4
  %10 = alloca i32, align 4
  %11 = alloca ptr, align 8
  %12 = alloca ptr, align 8
  %13 = alloca ptr, align 8
  %14 = alloca i32, align 4
  store ptr %0, ptr %5, align 8, !tbaa !11
  store ptr %1, ptr %6, align 8, !tbaa !33
  store i32 %2, ptr %7, align 4, !tbaa !7
  call void @llvm.lifetime.start.p0(i64 4, ptr %8) #6
  call void @llvm.lifetime.start.p0(i64 4, ptr %9) #6
  call void @llvm.lifetime.start.p0(i64 4, ptr %10) #6
  store i32 -1, ptr %10, align 4, !tbaa !7
  call void @llvm.lifetime.start.p0(i64 8, ptr %11) #6
  call void @llvm.lifetime.start.p0(i64 8, ptr %12) #6
  %15 = load ptr, ptr %5, align 8, !tbaa !11
  %16 = getelementptr inbounds nuw %struct.bio_st, ptr %15, i32 0, i32 10
  %17 = load ptr, ptr %16, align 8, !tbaa !13
  store ptr %17, ptr %12, align 8, !tbaa !21
  call void @llvm.lifetime.start.p0(i64 8, ptr %13) #6
  %18 = load ptr, ptr %12, align 8, !tbaa !21
  %19 = getelementptr inbounds nuw %struct.bio_buf_mem_st, ptr %18, i32 0, i32 1
  %20 = load ptr, ptr %19, align 8, !tbaa !31
  store ptr %20, ptr %13, align 8, !tbaa !26
  %21 = load ptr, ptr %5, align 8, !tbaa !11
  %22 = getelementptr inbounds nuw %struct.bio_st, ptr %21, i32 0, i32 7
  %23 = load i32, ptr %22, align 8, !tbaa !34
  %24 = and i32 %23, 512
  %25 = icmp ne i32 %24, 0
  br i1 %25, label %26, label %30

26:                                               ; preds = %3
  %27 = load ptr, ptr %12, align 8, !tbaa !21
  %28 = getelementptr inbounds nuw %struct.bio_buf_mem_st, ptr %27, i32 0, i32 0
  %29 = load ptr, ptr %28, align 8, !tbaa !23
  store ptr %29, ptr %13, align 8, !tbaa !26
  br label %30

30:                                               ; preds = %26, %3
  %31 = load ptr, ptr %5, align 8, !tbaa !11
  call void @BIO_clear_flags(ptr noundef %31, i32 noundef 15)
  %32 = load ptr, ptr %13, align 8, !tbaa !26
  %33 = getelementptr inbounds nuw %struct.buf_mem_st, ptr %32, i32 0, i32 0
  %34 = load i64, ptr %33, align 8, !tbaa !29
  %35 = trunc i64 %34 to i32
  store i32 %35, ptr %9, align 4, !tbaa !7
  %36 = load i32, ptr %7, align 4, !tbaa !7
  %37 = sub nsw i32 %36, 1
  %38 = load i32, ptr %9, align 4, !tbaa !7
  %39 = icmp slt i32 %37, %38
  br i1 %39, label %40, label %43

40:                                               ; preds = %30
  %41 = load i32, ptr %7, align 4, !tbaa !7
  %42 = sub nsw i32 %41, 1
  store i32 %42, ptr %9, align 4, !tbaa !7
  br label %43

43:                                               ; preds = %40, %30
  %44 = load i32, ptr %9, align 4, !tbaa !7
  %45 = icmp sle i32 %44, 0
  br i1 %45, label %46, label %48

46:                                               ; preds = %43
  %47 = load ptr, ptr %6, align 8, !tbaa !33
  store i8 0, ptr %47, align 1, !tbaa !36
  store i32 0, ptr %4, align 4
  store i32 1, ptr %14, align 4
  br label %86

48:                                               ; preds = %43
  %49 = load ptr, ptr %13, align 8, !tbaa !26
  %50 = getelementptr inbounds nuw %struct.buf_mem_st, ptr %49, i32 0, i32 1
  %51 = load ptr, ptr %50, align 8, !tbaa !27
  store ptr %51, ptr %11, align 8, !tbaa !33
  store i32 0, ptr %8, align 4, !tbaa !7
  br label %52

52:                                               ; preds = %68, %48
  %53 = load i32, ptr %8, align 4, !tbaa !7
  %54 = load i32, ptr %9, align 4, !tbaa !7
  %55 = icmp slt i32 %53, %54
  br i1 %55, label %56, label %71

56:                                               ; preds = %52
  %57 = load ptr, ptr %11, align 8, !tbaa !33
  %58 = load i32, ptr %8, align 4, !tbaa !7
  %59 = sext i32 %58 to i64
  %60 = getelementptr inbounds i8, ptr %57, i64 %59
  %61 = load i8, ptr %60, align 1, !tbaa !36
  %62 = sext i8 %61 to i32
  %63 = icmp eq i32 %62, 10
  br i1 %63, label %64, label %67

64:                                               ; preds = %56
  %65 = load i32, ptr %8, align 4, !tbaa !7
  %66 = add nsw i32 %65, 1
  store i32 %66, ptr %8, align 4, !tbaa !7
  br label %71

67:                                               ; preds = %56
  br label %68

68:                                               ; preds = %67
  %69 = load i32, ptr %8, align 4, !tbaa !7
  %70 = add nsw i32 %69, 1
  store i32 %70, ptr %8, align 4, !tbaa !7
  br label %52, !llvm.loop !37

71:                                               ; preds = %64, %52
  %72 = load ptr, ptr %5, align 8, !tbaa !11
  %73 = load ptr, ptr %6, align 8, !tbaa !33
  %74 = load i32, ptr %8, align 4, !tbaa !7
  %75 = call i32 @mem_read(ptr noundef %72, ptr noundef %73, i32 noundef %74)
  store i32 %75, ptr %8, align 4, !tbaa !7
  %76 = load i32, ptr %8, align 4, !tbaa !7
  %77 = icmp sgt i32 %76, 0
  br i1 %77, label %78, label %83

78:                                               ; preds = %71
  %79 = load ptr, ptr %6, align 8, !tbaa !33
  %80 = load i32, ptr %8, align 4, !tbaa !7
  %81 = sext i32 %80 to i64
  %82 = getelementptr inbounds i8, ptr %79, i64 %81
  store i8 0, ptr %82, align 1, !tbaa !36
  br label %83

83:                                               ; preds = %78, %71
  %84 = load i32, ptr %8, align 4, !tbaa !7
  store i32 %84, ptr %10, align 4, !tbaa !7
  %85 = load i32, ptr %10, align 4, !tbaa !7
  store i32 %85, ptr %4, align 4
  store i32 1, ptr %14, align 4
  br label %86

86:                                               ; preds = %83, %46
  call void @llvm.lifetime.end.p0(i64 8, ptr %13) #6
  call void @llvm.lifetime.end.p0(i64 8, ptr %12) #6
  call void @llvm.lifetime.end.p0(i64 8, ptr %11) #6
  call void @llvm.lifetime.end.p0(i64 4, ptr %10) #6
  call void @llvm.lifetime.end.p0(i64 4, ptr %9) #6
  call void @llvm.lifetime.end.p0(i64 4, ptr %8) #6
  %87 = load i32, ptr %4, align 4
  ret i32 %87
}