; Function Attrs: nounwind uwtable
define internal i32 @mem_gets(ptr noundef %0, ptr noundef writeonly captures(address_is_null) %1, i32 noundef %2) #1 {
  %4 = getelementptr inbounds nuw i8, ptr %0, i64 64
  %5 = load ptr, ptr %4, align 8, !tbaa !3
  %6 = getelementptr inbounds nuw i8, ptr %0, i64 48
  %7 = load i32, ptr %6, align 8, !tbaa !28
  %8 = lshr i32 %7, 6
  %9 = and i32 %8, 8
  %10 = xor i32 %9, 8
  %spec.select.idx = zext nneg i32 %10 to i64
  %spec.select = getelementptr inbounds nuw i8, ptr %5, i64 %spec.select.idx
  %.0 = load ptr, ptr %spec.select, align 8, !tbaa !31
  tail call void @BIO_clear_flags(ptr noundef %0, i32 noundef 15) #7
  %11 = load i64, ptr %.0, align 8, !tbaa !22
  %12 = trunc i64 %11 to i32
  %.not32 = icmp sgt i32 %2, %12
  %13 = add nsw i32 %2, -1
  %.028 = select i1 %.not32, i32 %12, i32 %13
  %14 = icmp slt i32 %.028, 1
  br i1 %14, label %15, label %16

15:                                               ; preds = %3
  store i8 0, ptr %1, align 1, !tbaa !32
  br label %mem_read.exit.thread

16:                                               ; preds = %3
  %17 = getelementptr inbounds nuw i8, ptr %.0, i64 8
  %18 = load ptr, ptr %17, align 8, !tbaa !20
  %wide.trip.count = zext nneg i32 %.028 to i64
  br label %19

19:                                               ; preds = %16, %26
  %indvars.iv = phi i64 [ 0, %16 ], [ %indvars.iv.next, %26 ]
  %20 = getelementptr inbounds nuw i8, ptr %18, i64 %indvars.iv
  %21 = load i8, ptr %20, align 1, !tbaa !32
  %22 = icmp eq i8 %21, 10
  br i1 %22, label %23, label %26

23:                                               ; preds = %19
  %24 = trunc nuw nsw i64 %indvars.iv to i32
  %25 = add nuw nsw i32 %24, 1
  br label %.loopexit

26:                                               ; preds = %19
  %indvars.iv.next = add nuw nsw i64 %indvars.iv, 1
  %exitcond.not = icmp eq i64 %indvars.iv.next, %wide.trip.count
  br i1 %exitcond.not, label %.loopexit, label %19, !llvm.loop !33

.loopexit:                                        ; preds = %26, %23
  %.1 = phi i32 [ %25, %23 ], [ %.028, %26 ]
  %27 = load ptr, ptr %4, align 8, !tbaa !3
  %28 = load i32, ptr %6, align 8, !tbaa !28
  %29 = lshr i32 %28, 6
  %30 = and i32 %29, 8
  %31 = xor i32 %30, 8
  %spec.select.idx.i = zext nneg i32 %31 to i64
  %spec.select.i = getelementptr inbounds nuw i8, ptr %27, i64 %spec.select.idx.i
  %.0.i = load ptr, ptr %spec.select.i, align 8, !tbaa !31
  tail call void @BIO_clear_flags(ptr noundef %0, i32 noundef 15) #7
  %32 = icmp sgt i32 %.1, -1
  %.pre.i = load i64, ptr %.0.i, align 8, !tbaa !22
  br i1 %32, label %33, label %.thread.i

33:                                               ; preds = %.loopexit
  %34 = zext nneg i32 %.1 to i64
  %spec.select3335.i = tail call i64 @llvm.umin.i64(i64 %.pre.i, i64 %34)
  %spec.select33.i = trunc nuw nsw i64 %spec.select3335.i to i32
  %35 = icmp ne ptr %1, null
  %36 = icmp ne i64 %.pre.i, 0
  %or.cond.i = select i1 %35, i1 %36, i1 false
  br i1 %or.cond.i, label %37, label %.thread.i

37:                                               ; preds = %33
  %38 = getelementptr inbounds nuw i8, ptr %.0.i, i64 8
  %39 = load ptr, ptr %38, align 8, !tbaa !20
  tail call void @llvm.memcpy.p0.p0.i64(ptr nonnull align 1 %1, ptr align 1 %39, i64 %spec.select3335.i, i1 false)
  %40 = load i64, ptr %.0.i, align 8, !tbaa !22
  %41 = sub i64 %40, %spec.select3335.i
  store i64 %41, ptr %.0.i, align 8, !tbaa !22
  %42 = getelementptr inbounds nuw i8, ptr %.0.i, i64 16
  %43 = load i64, ptr %42, align 8, !tbaa !23
  %44 = sub i64 %43, %spec.select3335.i
  store i64 %44, ptr %42, align 8, !tbaa !23
  %45 = load ptr, ptr %38, align 8, !tbaa !20
  %46 = getelementptr inbounds nuw i8, ptr %45, i64 %spec.select3335.i
  store ptr %46, ptr %38, align 8, !tbaa !20
  br label %mem_read.exit

.thread.i:                                        ; preds = %33, %.loopexit
  %47 = phi i32 [ %spec.select33.i, %33 ], [ %.1, %.loopexit ]
  %48 = icmp eq i64 %.pre.i, 0
  br i1 %48, label %49, label %mem_read.exit

49:                                               ; preds = %.thread.i
  %50 = getelementptr inbounds nuw i8, ptr %0, i64 56
  %51 = load i32, ptr %50, align 8, !tbaa !29
  %.not32.i = icmp eq i32 %51, 0
  br i1 %.not32.i, label %mem_read.exit.thread, label %52

52:                                               ; preds = %49
  tail call void @BIO_set_flags(ptr noundef nonnull %0, i32 noundef 9) #7
  br label %mem_read.exit

mem_read.exit:                                    ; preds = %37, %.thread.i, %52
  %.026.i = phi i32 [ %spec.select33.i, %37 ], [ %51, %52 ], [ %47, %.thread.i ]
  %53 = icmp sgt i32 %.026.i, 0
  br i1 %53, label %54, label %mem_read.exit.thread

54:                                               ; preds = %mem_read.exit
  %55 = zext nneg i32 %.026.i to i64
  %56 = getelementptr inbounds nuw i8, ptr %1, i64 %55
  store i8 0, ptr %56, align 1, !tbaa !32
  br label %mem_read.exit.thread

mem_read.exit.thread:                             ; preds = %49, %mem_read.exit, %54, %15
  %.026 = phi i32 [ 0, %15 ], [ %.026.i, %54 ], [ %.026.i, %mem_read.exit ], [ 0, %49 ]
  ret i32 %.026
}